; ModuleID = '14/446.c'
source_filename = "14/446.c"
target datalayout = "e-m:e-p270:32:32-p271:32:32-p272:64:64-i64:64-f80:128-n8:16:32:64-S128"
target triple = "x86_64-pc-linux-gnu"

@.str = private unnamed_addr constant [3 x i8] c"%d\00", align 1
@.str.1 = private unnamed_addr constant [7 x i8] c"%d%d%d\00", align 1
@.str.2 = private unnamed_addr constant [7 x i8] c"%d %d\0A\00", align 1

; Function Attrs: noinline nounwind uwtable
define dso_local void @main() #0 {
  %1 = alloca [100000 x i32], align 16
  %2 = alloca [100000 x i32], align 16
  %3 = alloca [100000 x i32], align 16
  %4 = alloca i32, align 4
  %5 = alloca i32, align 4
  %6 = alloca i32, align 4
  %7 = alloca i32, align 4
  %8 = alloca i32, align 4
  %9 = call i32 (i8*, ...) @__isoc99_scanf(i8* getelementptr inbounds ([3 x i8], [3 x i8]* @.str, i64 0, i64 0), i32* %6)
  store i32 0, i32* %4, align 4
  br label %10

10:                                               ; preds = %37, %0
  %11 = load i32, i32* %4, align 4
  %12 = load i32, i32* %6, align 4
  %13 = icmp slt i32 %11, %12
  br i1 %13, label %14, label %40

14:                                               ; preds = %10
  %15 = load i32, i32* %4, align 4
  %16 = sext i32 %15 to i64
  %17 = getelementptr inbounds [100000 x i32], [100000 x i32]* %1, i64 0, i64 %16
  %18 = load i32, i32* %4, align 4
  %19 = sext i32 %18 to i64
  %20 = getelementptr inbounds [100000 x i32], [100000 x i32]* %2, i64 0, i64 %19
  %21 = load i32, i32* %4, align 4
  %22 = sext i32 %21 to i64
  %23 = getelementptr inbounds [100000 x i32], [100000 x i32]* %3, i64 0, i64 %22
  %24 = call i32 (i8*, ...) @__isoc99_scanf(i8* getelementptr inbounds ([7 x i8], [7 x i8]* @.str.1, i64 0, i64 0), i32* %17, i32* %20, i32* %23)
  %25 = load i32, i32* %4, align 4
  %26 = sext i32 %25 to i64
  %27 = getelementptr inbounds [100000 x i32], [100000 x i32]* %2, i64 0, i64 %26
  %28 = load i32, i32* %27, align 4
  %29 = load i32, i32* %4, align 4
  %30 = sext i32 %29 to i64
  %31 = getelementptr inbounds [100000 x i32], [100000 x i32]* %3, i64 0, i64 %30
  %32 = load i32, i32* %31, align 4
  %33 = add nsw i32 %28, %32
  %34 = load i32, i32* %4, align 4
  %35 = sext i32 %34 to i64
  %36 = getelementptr inbounds [100000 x i32], [100000 x i32]* %3, i64 0, i64 %35
  store i32 %33, i32* %36, align 4
  br label %37

37:                                               ; preds = %14
  %38 = load i32, i32* %4, align 4
  %39 = add nsw i32 %38, 1
  store i32 %39, i32* %4, align 4
  br label %10

40:                                               ; preds = %10
  store i32 0, i32* %4, align 4
  br label %41

41:                                               ; preds = %102, %40
  %42 = load i32, i32* %4, align 4
  %43 = icmp slt i32 %42, 3
  br i1 %43, label %44, label %105

44:                                               ; preds = %41
  %45 = load i32, i32* %6, align 4
  %46 = sub nsw i32 %45, 1
  store i32 %46, i32* %5, align 4
  br label %47

47:                                               ; preds = %98, %44
  %48 = load i32, i32* %5, align 4
  %49 = load i32, i32* %4, align 4
  %50 = icmp sgt i32 %48, %49
  br i1 %50, label %51, label %101

51:                                               ; preds = %47
  %52 = load i32, i32* %5, align 4
  %53 = sext i32 %52 to i64
  %54 = getelementptr inbounds [100000 x i32], [100000 x i32]* %3, i64 0, i64 %53
  %55 = load i32, i32* %54, align 4
  %56 = load i32, i32* %5, align 4
  %57 = sub nsw i32 %56, 1
  %58 = sext i32 %57 to i64
  %59 = getelementptr inbounds [100000 x i32], [100000 x i32]* %3, i64 0, i64 %58
  %60 = load i32, i32* %59, align 4
  %61 = icmp sgt i32 %55, %60
  br i1 %61, label %62, label %97

62:                                               ; preds = %51
  %63 = load i32, i32* %5, align 4
  %64 = sext i32 %63 to i64
  %65 = getelementptr inbounds [100000 x i32], [100000 x i32]* %3, i64 0, i64 %64
  %66 = load i32, i32* %65, align 4
  store i32 %66, i32* %7, align 4
  %67 = load i32, i32* %5, align 4
  %68 = sext i32 %67 to i64
  %69 = getelementptr inbounds [100000 x i32], [100000 x i32]* %1, i64 0, i64 %68
  %70 = load i32, i32* %69, align 4
  store i32 %70, i32* %8, align 4
  %71 = load i32, i32* %5, align 4
  %72 = sub nsw i32 %71, 1
  %73 = sext i32 %72 to i64
  %74 = getelementptr inbounds [100000 x i32], [100000 x i32]* %3, i64 0, i64 %73
  %75 = load i32, i32* %74, align 4
  %76 = load i32, i32* %5, align 4
  %77 = sext i32 %76 to i64
  %78 = getelementptr inbounds [100000 x i32], [100000 x i32]* %3, i64 0, i64 %77
  store i32 %75, i32* %78, align 4
  %79 = load i32, i32* %5, align 4
  %80 = sub nsw i32 %79, 1
  %81 = sext i32 %80 to i64
  %82 = getelementptr inbounds [100000 x i32], [100000 x i32]* %1, i64 0, i64 %81
  %83 = load i32, i32* %82, align 4
  %84 = load i32, i32* %5, align 4
  %85 = sext i32 %84 to i64
  %86 = getelementptr inbounds [100000 x i32], [100000 x i32]* %1, i64 0, i64 %85
  store i32 %83, i32* %86, align 4
  %87 = load i32, i32* %7, align 4
  %88 = load i32, i32* %5, align 4
  %89 = sub nsw i32 %88, 1
  %90 = sext i32 %89 to i64
  %91 = getelementptr inbounds [100000 x i32], [100000 x i32]* %3, i64 0, i64 %90
  store i32 %87, i32* %91, align 4
  %92 = load i32, i32* %8, align 4
  %93 = load i32, i32* %5, align 4
  %94 = sub nsw i32 %93, 1
  %95 = sext i32 %94 to i64
  %96 = getelementptr inbounds [100000 x i32], [100000 x i32]* %1, i64 0, i64 %95
  store i32 %92, i32* %96, align 4
  br label %97

97:                                               ; preds = %62, %51
  br label %98

98:                                               ; preds = %97
  %99 = load i32, i32* %5, align 4
  %100 = add nsw i32 %99, -1
  store i32 %100, i32* %5, align 4
  br label %47

101:                                              ; preds = %47
  br label %102

102:                                              ; preds = %101
  %103 = load i32, i32* %4, align 4
  %104 = add nsw i32 %103, 1
  store i32 %104, i32* %4, align 4
  br label %41

105:                                              ; preds = %41
  store i32 0, i32* %4, align 4
  br label %106

106:                                              ; preds = %119, %105
  %107 = load i32, i32* %4, align 4
  %108 = icmp slt i32 %107, 3
  br i1 %108, label %109, label %122

109:                                              ; preds = %106
  %110 = load i32, i32* %4, align 4
  %111 = sext i32 %110 to i64
  %112 = getelementptr inbounds [100000 x i32], [100000 x i32]* %1, i64 0, i64 %111
  %113 = load i32, i32* %112, align 4
  %114 = load i32, i32* %4, align 4
  %115 = sext i32 %114 to i64
  %116 = getelementptr inbounds [100000 x i32], [100000 x i32]* %3, i64 0, i64 %115
  %117 = load i32, i32* %116, align 4
  %118 = call i32 (i8*, ...) @printf(i8* getelementptr inbounds ([7 x i8], [7 x i8]* @.str.2, i64 0, i64 0), i32 %113, i32 %117)
  br label %119

119:                                              ; preds = %109
  %120 = load i32, i32* %4, align 4
  %121 = add nsw i32 %120, 1
  store i32 %121, i32* %4, align 4
  br label %106

122:                                              ; preds = %106
  ret void
}

declare dso_local i32 @__isoc99_scanf(i8*, ...) #1

declare dso_local i32 @printf(i8*, ...) #1


!llvm.module.flags = !{!0}
!llvm.ident = !{!1}

!0 = !{i32 1, !"wchar_size", i32 4}
!1 = !{!"clang version 10.0.0-4ubuntu1 "}
